	.file	"map.c"
	.text
	.comm	foo,4,4
	.globl	stuff
	.data
	.align 4
	.type	stuff, @object
	.size	stuff, 4
stuff:
	.long	7
	.text
	.globl	main
	.type	main, @function
main:
.LFB5:
	.cfi_startproc
	leal	4(%esp), %ecx
	.cfi_def_cfa 1, 0
	andl	$-16, %esp
	pushl	-4(%ecx)
	pushl	%ebp
	.cfi_escape 0x10,0x5,0x2,0x75,0
	movl	%esp, %ebp
	pushl	%ebx
	pushl	%ecx
	.cfi_escape 0xf,0x3,0x75,0x78,0x6
	.cfi_escape 0x10,0x3,0x2,0x75,0x7c
	subl	$16, %esp
	call	__x86.get_pc_thunk.bx
	addl	$_GLOBAL_OFFSET_TABLE_, %ebx
	movl	$0, -20(%ebp)
	subl	$12, %esp
	pushl	$100
	call	malloc@PLT
	addl	$16, %esp
	movl	%eax, -16(%ebp)
	subl	$12, %esp
	pushl	$100
	call	malloc@PLT
	addl	$16, %esp
	movl	%eax, -12(%ebp)
	subl	$12, %esp
	pushl	$3
	call	recur@PLT
	addl	$16, %esp
	movl	$0, %eax
	leal	-8(%ebp), %esp
	popl	%ecx
	.cfi_restore 1
	.cfi_def_cfa 1, 0
	popl	%ebx
	.cfi_restore 3
	popl	%ebp
	.cfi_restore 5
	leal	-4(%ecx), %esp
	.cfi_def_cfa 4, 4
	ret
	.cfi_endproc
.LFE5:
	.size	main, .-main
	.section	.text.__x86.get_pc_thunk.bx,"axG",@progbits,__x86.get_pc_thunk.bx,comdat
	.globl	__x86.get_pc_thunk.bx
	.hidden	__x86.get_pc_thunk.bx
	.type	__x86.get_pc_thunk.bx, @function
__x86.get_pc_thunk.bx:
.LFB6:
	.cfi_startproc
	movl	(%esp), %ebx
	ret
	.cfi_endproc
.LFE6:
	.ident	"GCC: (Ubuntu 7.5.0-3ubuntu1~18.04) 7.5.0"
	.section	.note.GNU-stack,"",@progbits
