	.file	"recurse.c"
	.text
	.section	.rodata
.LC0:
	.string	"%i\n"
	.text
	.globl	recur
	.type	recur, @function
recur:
.LFB0:
	.cfi_startproc
	pushl	%ebp
	.cfi_def_cfa_offset 8
	.cfi_offset 5, -8
	movl	%esp, %ebp
	.cfi_def_cfa_register 5
	pushl	%ebx
	subl	$20, %esp
	.cfi_offset 3, -12
	call	__x86.get_pc_thunk.ax
	addl	$_GLOBAL_OFFSET_TABLE_, %eax
	movl	8(%ebp), %edx
	movl	%edx, -12(%ebp)
	subl	$8, %esp
	pushl	8(%ebp)
	leal	.LC0@GOTOFF(%eax), %edx
	pushl	%edx
	movl	%eax, %ebx
	call	printf@PLT
	addl	$16, %esp
	cmpl	$0, 8(%ebp)
	jle	.L2
	movl	8(%ebp), %eax
	subl	$1, %eax
	subl	$12, %esp
	pushl	%eax
	call	recur
	addl	$16, %esp
	jmp	.L3
.L2:
	movl	$0, %eax
.L3:
	movl	-4(%ebp), %ebx
	leave
	.cfi_restore 5
	.cfi_restore 3
	.cfi_def_cfa 4, 4
	ret
	.cfi_endproc
.LFE0:
	.size	recur, .-recur
	.section	.text.__x86.get_pc_thunk.ax,"axG",@progbits,__x86.get_pc_thunk.ax,comdat
	.globl	__x86.get_pc_thunk.ax
	.hidden	__x86.get_pc_thunk.ax
	.type	__x86.get_pc_thunk.ax, @function
__x86.get_pc_thunk.ax:
.LFB1:
	.cfi_startproc
	movl	(%esp), %eax
	ret
	.cfi_endproc
.LFE1:
	.ident	"GCC: (Ubuntu 7.5.0-3ubuntu1~18.04) 7.5.0"
	.section	.note.GNU-stack,"",@progbits
